; ModuleID = '4/46.c'
source_filename = "4/46.c"
target datalayout = "e-m:e-p270:32:32-p271:32:32-p272:64:64-i64:64-f80:128-n8:16:32:64-S128"
target triple = "x86_64-pc-linux-gnu"

@.str = private unnamed_addr constant [5 x i8] c"%d%d\00", align 1
@.str.1 = private unnamed_addr constant [3 x i8] c"%d\00", align 1
@.str.2 = private unnamed_addr constant [4 x i8] c"%d\0A\00", align 1

; Function Attrs: noinline nounwind uwtable
define dso_local void @main() #0 {
  %1 = alloca i32, align 4
  %2 = alloca i32, align 4
  %3 = alloca i32, align 4
  %4 = alloca i32, align 4
  %5 = alloca i32**, align 8
  %6 = alloca i32, align 4
  %7 = alloca i32, align 4
  %8 = call i32 (i8*, ...) @__isoc99_scanf(i8* getelementptr inbounds ([5 x i8], [5 x i8]* @.str, i64 0, i64 0), i32* %6, i32* %7)
  %9 = load i32, i32* %6, align 4
  %10 = sext i32 %9 to i64
  %11 = mul i64 %10, 8
  %12 = call noalias i8* @malloc(i64 %11) #3
  %13 = bitcast i8* %12 to i32**
  store i32** %13, i32*** %5, align 8
  store i32 0, i32* %1, align 4
  br label %14

14:                                               ; preds = %28, %0
  %15 = load i32, i32* %1, align 4
  %16 = load i32, i32* %6, align 4
  %17 = icmp slt i32 %15, %16
  br i1 %17, label %18, label %31

18:                                               ; preds = %14
  %19 = load i32, i32* %7, align 4
  %20 = sext i32 %19 to i64
  %21 = mul i64 %20, 4
  %22 = call noalias i8* @malloc(i64 %21) #3
  %23 = bitcast i8* %22 to i32*
  %24 = load i32**, i32*** %5, align 8
  %25 = load i32, i32* %1, align 4
  %26 = sext i32 %25 to i64
  %27 = getelementptr inbounds i32*, i32** %24, i64 %26
  store i32* %23, i32** %27, align 8
  br label %28

28:                                               ; preds = %18
  %29 = load i32, i32* %1, align 4
  %30 = add nsw i32 %29, 1
  store i32 %30, i32* %1, align 4
  br label %14

31:                                               ; preds = %14
  store i32 0, i32* %1, align 4
  br label %32

32:                                               ; preds = %55, %31
  %33 = load i32, i32* %1, align 4
  %34 = load i32, i32* %6, align 4
  %35 = icmp slt i32 %33, %34
  br i1 %35, label %36, label %58

36:                                               ; preds = %32
  store i32 0, i32* %2, align 4
  br label %37

37:                                               ; preds = %51, %36
  %38 = load i32, i32* %2, align 4
  %39 = load i32, i32* %7, align 4
  %40 = icmp slt i32 %38, %39
  br i1 %40, label %41, label %54

41:                                               ; preds = %37
  %42 = load i32**, i32*** %5, align 8
  %43 = load i32, i32* %1, align 4
  %44 = sext i32 %43 to i64
  %45 = getelementptr inbounds i32*, i32** %42, i64 %44
  %46 = load i32*, i32** %45, align 8
  %47 = load i32, i32* %2, align 4
  %48 = sext i32 %47 to i64
  %49 = getelementptr inbounds i32, i32* %46, i64 %48
  %50 = call i32 (i8*, ...) @__isoc99_scanf(i8* getelementptr inbounds ([3 x i8], [3 x i8]* @.str.1, i64 0, i64 0), i32* %49)
  br label %51

51:                                               ; preds = %41
  %52 = load i32, i32* %2, align 4
  %53 = add nsw i32 %52, 1
  store i32 %53, i32* %2, align 4
  br label %37

54:                                               ; preds = %37
  br label %55

55:                                               ; preds = %54
  %56 = load i32, i32* %1, align 4
  %57 = add nsw i32 %56, 1
  store i32 %57, i32* %1, align 4
  br label %32

58:                                               ; preds = %32
  %59 = load i32, i32* %6, align 4
  %60 = load i32, i32* %7, align 4
  %61 = icmp slt i32 %59, %60
  br i1 %61, label %62, label %64

62:                                               ; preds = %58
  %63 = load i32, i32* %6, align 4
  br label %66

64:                                               ; preds = %58
  %65 = load i32, i32* %7, align 4
  br label %66

66:                                               ; preds = %64, %62
  %67 = phi i32 [ %63, %62 ], [ %65, %64 ]
  store i32 %67, i32* %4, align 4
  store i32 0, i32* %3, align 4
  br label %68

68:                                               ; preds = %95, %66
  %69 = load i32, i32* %3, align 4
  %70 = load i32, i32* %4, align 4
  %71 = icmp slt i32 %69, %70
  br i1 %71, label %72, label %98

72:                                               ; preds = %68
  store i32 0, i32* %1, align 4
  %73 = load i32, i32* %3, align 4
  store i32 %73, i32* %2, align 4
  br label %74

74:                                               ; preds = %89, %72
  %75 = load i32, i32* %1, align 4
  %76 = load i32, i32* %3, align 4
  %77 = icmp sle i32 %75, %76
  br i1 %77, label %78, label %94

78:                                               ; preds = %74
  %79 = load i32**, i32*** %5, align 8
  %80 = load i32, i32* %1, align 4
  %81 = sext i32 %80 to i64
  %82 = getelementptr inbounds i32*, i32** %79, i64 %81
  %83 = load i32*, i32** %82, align 8
  %84 = load i32, i32* %2, align 4
  %85 = sext i32 %84 to i64
  %86 = getelementptr inbounds i32, i32* %83, i64 %85
  %87 = load i32, i32* %86, align 4
  %88 = call i32 (i8*, ...) @printf(i8* getelementptr inbounds ([4 x i8], [4 x i8]* @.str.2, i64 0, i64 0), i32 %87)
  br label %89

89:                                               ; preds = %78
  %90 = load i32, i32* %1, align 4
  %91 = add nsw i32 %90, 1
  store i32 %91, i32* %1, align 4
  %92 = load i32, i32* %2, align 4
  %93 = add nsw i32 %92, -1
  store i32 %93, i32* %2, align 4
  br label %74

94:                                               ; preds = %74
  br label %95

95:                                               ; preds = %94
  %96 = load i32, i32* %3, align 4
  %97 = add nsw i32 %96, 1
  store i32 %97, i32* %3, align 4
  br label %68

98:                                               ; preds = %68
  %99 = load i32, i32* %7, align 4
  %100 = load i32, i32* %4, align 4
  %101 = icmp eq i32 %99, %100
  br i1 %101, label %102, label %141

102:                                              ; preds = %98
  store i32 1, i32* %3, align 4
  br label %103

103:                                              ; preds = %137, %102
  %104 = load i32, i32* %3, align 4
  %105 = load i32, i32* %6, align 4
  %106 = icmp slt i32 %104, %105
  br i1 %106, label %107, label %140

107:                                              ; preds = %103
  %108 = load i32, i32* %3, align 4
  store i32 %108, i32* %1, align 4
  %109 = load i32, i32* %7, align 4
  %110 = sub nsw i32 %109, 1
  store i32 %110, i32* %2, align 4
  br label %111

111:                                              ; preds = %131, %107
  %112 = load i32, i32* %1, align 4
  %113 = load i32, i32* %6, align 4
  %114 = icmp slt i32 %112, %113
  br i1 %114, label %115, label %118

115:                                              ; preds = %111
  %116 = load i32, i32* %2, align 4
  %117 = icmp sge i32 %116, 0
  br label %118

118:                                              ; preds = %115, %111
  %119 = phi i1 [ false, %111 ], [ %117, %115 ]
  br i1 %119, label %120, label %136

120:                                              ; preds = %118
  %121 = load i32**, i32*** %5, align 8
  %122 = load i32, i32* %1, align 4
  %123 = sext i32 %122 to i64
  %124 = getelementptr inbounds i32*, i32** %121, i64 %123
  %125 = load i32*, i32** %124, align 8
  %126 = load i32, i32* %2, align 4
  %127 = sext i32 %126 to i64
  %128 = getelementptr inbounds i32, i32* %125, i64 %127
  %129 = load i32, i32* %128, align 4
  %130 = call i32 (i8*, ...) @printf(i8* getelementptr inbounds ([4 x i8], [4 x i8]* @.str.2, i64 0, i64 0), i32 %129)
  br label %131

131:                                              ; preds = %120
  %132 = load i32, i32* %1, align 4
  %133 = add nsw i32 %132, 1
  store i32 %133, i32* %1, align 4
  %134 = load i32, i32* %2, align 4
  %135 = add nsw i32 %134, -1
  store i32 %135, i32* %2, align 4
  br label %111

136:                                              ; preds = %118
  br label %137

137:                                              ; preds = %136
  %138 = load i32, i32* %3, align 4
  %139 = add nsw i32 %138, 1
  store i32 %139, i32* %3, align 4
  br label %103

140:                                              ; preds = %103
  br label %207

141:                                              ; preds = %98
  %142 = load i32, i32* %4, align 4
  store i32 %142, i32* %3, align 4
  br label %143

143:                                              ; preds = %170, %141
  %144 = load i32, i32* %3, align 4
  %145 = load i32, i32* %7, align 4
  %146 = icmp slt i32 %144, %145
  br i1 %146, label %147, label %173

147:                                              ; preds = %143
  store i32 0, i32* %1, align 4
  %148 = load i32, i32* %3, align 4
  store i32 %148, i32* %2, align 4
  br label %149

149:                                              ; preds = %164, %147
  %150 = load i32, i32* %1, align 4
  %151 = load i32, i32* %6, align 4
  %152 = icmp slt i32 %150, %151
  br i1 %152, label %153, label %169

153:                                              ; preds = %149
  %154 = load i32**, i32*** %5, align 8
  %155 = load i32, i32* %1, align 4
  %156 = sext i32 %155 to i64
  %157 = getelementptr inbounds i32*, i32** %154, i64 %156
  %158 = load i32*, i32** %157, align 8
  %159 = load i32, i32* %2, align 4
  %160 = sext i32 %159 to i64
  %161 = getelementptr inbounds i32, i32* %158, i64 %160
  %162 = load i32, i32* %161, align 4
  %163 = call i32 (i8*, ...) @printf(i8* getelementptr inbounds ([4 x i8], [4 x i8]* @.str.2, i64 0, i64 0), i32 %162)
  br label %164

164:                                              ; preds = %153
  %165 = load i32, i32* %1, align 4
  %166 = add nsw i32 %165, 1
  store i32 %166, i32* %1, align 4
  %167 = load i32, i32* %2, align 4
  %168 = add nsw i32 %167, -1
  store i32 %168, i32* %2, align 4
  br label %149

169:                                              ; preds = %149
  br label %170

170:                                              ; preds = %169
  %171 = load i32, i32* %3, align 4
  %172 = add nsw i32 %171, 1
  store i32 %172, i32* %3, align 4
  br label %143

173:                                              ; preds = %143
  store i32 1, i32* %3, align 4
  br label %174

174:                                              ; preds = %203, %173
  %175 = load i32, i32* %3, align 4
  %176 = load i32, i32* %6, align 4
  %177 = icmp slt i32 %175, %176
  br i1 %177, label %178, label %206

178:                                              ; preds = %174
  %179 = load i32, i32* %3, align 4
  store i32 %179, i32* %1, align 4
  %180 = load i32, i32* %7, align 4
  %181 = sub nsw i32 %180, 1
  store i32 %181, i32* %2, align 4
  br label %182

182:                                              ; preds = %197, %178
  %183 = load i32, i32* %1, align 4
  %184 = load i32, i32* %6, align 4
  %185 = icmp slt i32 %183, %184
  br i1 %185, label %186, label %202

186:                                              ; preds = %182
  %187 = load i32**, i32*** %5, align 8
  %188 = load i32, i32* %1, align 4
  %189 = sext i32 %188 to i64
  %190 = getelementptr inbounds i32*, i32** %187, i64 %189
  %191 = load i32*, i32** %190, align 8
  %192 = load i32, i32* %2, align 4
  %193 = sext i32 %192 to i64
  %194 = getelementptr inbounds i32, i32* %191, i64 %193
  %195 = load i32, i32* %194, align 4
  %196 = call i32 (i8*, ...) @printf(i8* getelementptr inbounds ([4 x i8], [4 x i8]* @.str.2, i64 0, i64 0), i32 %195)
  br label %197

197:                                              ; preds = %186
  %198 = load i32, i32* %1, align 4
  %199 = add nsw i32 %198, 1
  store i32 %199, i32* %1, align 4
  %200 = load i32, i32* %2, align 4
  %201 = add nsw i32 %200, -1
  store i32 %201, i32* %2, align 4
  br label %182

202:                                              ; preds = %182
  br label %203

203:                                              ; preds = %202
  %204 = load i32, i32* %3, align 4
  %205 = add nsw i32 %204, 1
  store i32 %205, i32* %3, align 4
  br label %174

206:                                              ; preds = %174
  br label %207

207:                                              ; preds = %206, %140
  ret void
}

declare dso_local i32 @__isoc99_scanf(i8*, ...) #1

; Function Attrs: nounwind
declare dso_local noalias i8* @malloc(i64) #2

declare dso_local i32 @printf(i8*, ...) #1


!llvm.module.flags = !{!0}
!llvm.ident = !{!1}

!0 = !{i32 1, !"wchar_size", i32 4}
!1 = !{!"clang version 10.0.0-4ubuntu1 "}
